target datalayout = "e-m:e-p270:32:32-p271:32:32-p272:64:64-i64:64-i128:128-f80:128-n8:16:32:64-S128"
target triple = "x86_64-pc-linux-gnu"

%struct.FFV1Context = type { ptr, ptr, [256 x [2 x i64]], [8 x ptr], i32, i32, i32, i32, i32, i32, i32, i32, i32, i32, i64, i32, %struct.ProgressFrame, %struct.ProgressFrame, ptr, ptr, i32, i32, i32, ptr, i32, i32, [8 x [5 x [256 x i16]]], [8 x i32], [256 x i8], [8 x ptr], i32, i32, i32, i32, i32, i32, i32, i32, i32, i32, i32, i32, i32, i32, i32, i32, i32, i32, i32, ptr, ptr, i8 }
%struct.ProgressFrame = type { ptr, ptr }

; Function Attrs: nounwind uwtable
define i32 @ff_slice_coord(ptr noundef %0, i32 noundef %1, i32 noundef %2, i32 noundef %3, i32 noundef %4) #1 {
  %6 = alloca i32, align 4
  %7 = alloca ptr, align 8
  %8 = alloca i32, align 4
  %9 = alloca i32, align 4
  %10 = alloca i32, align 4
  %11 = alloca i32, align 4
  %12 = alloca i32, align 4
  %13 = alloca i32, align 4
  %14 = alloca i32, align 4
  store ptr %0, ptr %7, align 8, !tbaa !9
  store i32 %1, ptr %8, align 4, !tbaa !45
  store i32 %2, ptr %9, align 4, !tbaa !45
  store i32 %3, ptr %10, align 4, !tbaa !45
  store i32 %4, ptr %11, align 4, !tbaa !45
  call void @llvm.lifetime.start.p0(i64 4, ptr %12) #9
  %15 = load i32, ptr %11, align 4, !tbaa !45
  %16 = shl i32 1, %15
  store i32 %16, ptr %12, align 4, !tbaa !45
  call void @llvm.lifetime.start.p0(i64 4, ptr %13) #9
  %17 = load i32, ptr %8, align 4, !tbaa !45
  %18 = load i32, ptr %12, align 4, !tbaa !45
  %19 = add nsw i32 %17, %18
  %20 = sub nsw i32 %19, 1
  %21 = load i32, ptr %12, align 4, !tbaa !45
  %22 = sub nsw i32 %21, 1
  %23 = xor i32 %22, -1
  %24 = and i32 %20, %23
  store i32 %24, ptr %13, align 4, !tbaa !45
  %25 = load ptr, ptr %7, align 8, !tbaa !9
  %26 = getelementptr inbounds nuw %struct.FFV1Context, ptr %25, i32 0, i32 6
  %27 = load i32, ptr %26, align 8, !tbaa !74
  %28 = icmp sle i32 %27, 262146
  br i1 %28, label %29, label %35

29:                                               ; preds = %5
  %30 = load i32, ptr %8, align 4, !tbaa !45
  %31 = load i32, ptr %9, align 4, !tbaa !45
  %32 = mul nsw i32 %30, %31
  %33 = load i32, ptr %10, align 4, !tbaa !45
  %34 = sdiv i32 %32, %33
  store i32 %34, ptr %6, align 4
  store i32 1, ptr %14, align 4
  br label %64

35:                                               ; preds = %5
  %36 = load i32, ptr %13, align 4, !tbaa !45
  %37 = sext i32 %36 to i64
  %38 = mul nsw i64 2, %37
  %39 = load i32, ptr %9, align 4, !tbaa !45
  %40 = sext i32 %39 to i64
  %41 = mul nsw i64 %38, %40
  %42 = load i32, ptr %10, align 4, !tbaa !45
  %43 = load i32, ptr %12, align 4, !tbaa !45
  %44 = mul nsw i32 %42, %43
  %45 = sext i32 %44 to i64
  %46 = add nsw i64 %41, %45
  %47 = load i32, ptr %10, align 4, !tbaa !45
  %48 = mul nsw i32 2, %47
  %49 = load i32, ptr %12, align 4, !tbaa !45
  %50 = mul nsw i32 %48, %49
  %51 = sext i32 %50 to i64
  %52 = sdiv i64 %46, %51
  %53 = load i32, ptr %12, align 4, !tbaa !45
  %54 = sext i32 %53 to i64
  %55 = mul nsw i64 %52, %54
  %56 = trunc i64 %55 to i32
  store i32 %56, ptr %9, align 4, !tbaa !45
  %57 = load i32, ptr %9, align 4, !tbaa !45
  %58 = load i32, ptr %13, align 4, !tbaa !45
  %59 = icmp eq i32 %57, %58
  br i1 %59, label %60, label %62

60:                                               ; preds = %35
  %61 = load i32, ptr %8, align 4, !tbaa !45
  store i32 %61, ptr %9, align 4, !tbaa !45
  br label %62

62:                                               ; preds = %60, %35
  %63 = load i32, ptr %9, align 4, !tbaa !45
  store i32 %63, ptr %6, align 4
  store i32 1, ptr %14, align 4
  br label %64

64:                                               ; preds = %62, %29
  call void @llvm.lifetime.end.p0(i64 4, ptr %13) #9
  call void @llvm.lifetime.end.p0(i64 4, ptr %12) #9
  %65 = load i32, ptr %6, align 4
  ret i32 %65
}