; Function Attrs: mustprogress nofree norecurse nosync nounwind willreturn memory(argmem: read) uwtable
define i32 @ff_slice_coord(ptr noundef readonly captures(none) %0, i32 noundef %1, i32 noundef %2, i32 noundef %3, i32 noundef %4) local_unnamed_addr #5 {
  %6 = getelementptr inbounds nuw i8, ptr %0, i64 4184
  %7 = load i32, ptr %6, align 8, !tbaa !66
  %8 = icmp slt i32 %7, 262147
  br i1 %8, label %9, label %12

9:                                                ; preds = %5
  %10 = mul nsw i32 %2, %1
  %11 = sdiv i32 %10, %3
  br label %33

12:                                               ; preds = %5
  %13 = shl nuw i32 1, %4
  %14 = add i32 %1, -1
  %15 = add i32 %14, %13
  %16 = sub i32 0, %13
  %17 = and i32 %15, %16
  %18 = sext i32 %17 to i64
  %19 = sext i32 %2 to i64
  %20 = shl nsw i64 %19, 1
  %21 = mul i64 %20, %18
  %22 = shl i32 %3, %4
  %23 = sext i32 %22 to i64
  %24 = add nsw i64 %21, %23
  %25 = shl nsw i32 %3, 1
  %26 = shl i32 %25, %4
  %27 = sext i32 %26 to i64
  %28 = sdiv i64 %24, %27
  %29 = zext nneg i32 %4 to i64
  %30 = shl i64 %28, %29
  %31 = trunc i64 %30 to i32
  %32 = icmp eq i32 %17, %31
  %spec.select = select i1 %32, i32 %1, i32 %31
  br label %33

33:                                               ; preds = %12, %9
  %.0 = phi i32 [ %11, %9 ], [ %spec.select, %12 ]
  ret i32 %.0
}